; Function Attrs: mustprogress null_pointer_is_valid sspstrong uwtable
define void @_Z26gstring_free_to_qbytearrayP8_GString(ptr dead_on_unwind noalias writable sret(%class.QByteArray) align 8 %0, ptr noundef %1) local_unnamed_addr #0 personality ptr @__gxx_personality_v0 {
  %3 = load ptr, ptr %1, align 8
  tail call void @_ZN10QByteArrayC1EPKcx(ptr noundef align 8 dereferenceable_or_null(24) %0, ptr noundef %3, i64 noundef -1)
  %4 = invoke ptr @g_string_free(ptr noundef %1, i32 noundef 1)
          to label %7 unwind label %5

5:                                                ; preds = %2
  %6 = landingpad { ptr, i32 }
          cleanup
  tail call void @_ZN10QByteArrayD2Ev(ptr noundef align 8 dereferenceable_or_null(24) %0) #21
  resume { ptr, i32 } %6

7:                                                ; preds = %2
  ret void
}